target datalayout = "e-m:e-p270:32:32-p271:32:32-p272:64:64-i64:64-i128:128-f80:128-n8:16:32:64-S128"
target triple = "x86_64-pc-linux-gnu"

%struct.VariableStatData = type { ptr, ptr, ptr, ptr, i32, i32, i32, i8, i8 }
%struct.Node = type { i32 }
%struct.Const = type { %struct.Expr, i32, i32, i32, i32, i64, i8, i8, i32 }
%struct.Expr = type { i32 }
%struct.FmgrInfo = type { ptr, i32, i16, i8, i8, i8, ptr, ptr, ptr }
%struct.FormData_pg_statistic = type { i32, i16, i8, float, i32, float, i16, i16, i16, i16, i16, i32, i32, i32, i32, i32, i32, i32, i32, i32, i32 }
%struct.HeapTupleData = type { i32, %struct.ItemPointerData, i32, ptr }
%struct.ItemPointerData = type { %struct.BlockIdData, i16 }
%struct.BlockIdData = type { i16, i16 }
%struct.HeapTupleHeaderData = type { %union.anon.4, %struct.ItemPointerData, i16, i16, i8, [0 x i8] }
%union.anon.4 = type { %struct.HeapTupleFields }
%struct.HeapTupleFields = type { i32, i32, %union.anon.5 }
%union.anon.5 = type { i32 }

; Function Attrs: inlinehint nounwind uwtable
define internal ptr @GETSTRUCT(ptr noundef %0) #1 {
  %2 = alloca ptr, align 8
  store ptr %0, ptr %2, align 8
  %3 = load ptr, ptr %2, align 8
  %4 = getelementptr inbounds nuw %struct.HeapTupleData, ptr %3, i32 0, i32 3
  %5 = load ptr, ptr %4, align 8
  %6 = load ptr, ptr %2, align 8
  %7 = getelementptr inbounds nuw %struct.HeapTupleData, ptr %6, i32 0, i32 3
  %8 = load ptr, ptr %7, align 8
  %9 = getelementptr inbounds nuw %struct.HeapTupleHeaderData, ptr %8, i32 0, i32 4
  %10 = load i8, ptr %9, align 2
  %11 = zext i8 %10 to i32
  %12 = sext i32 %11 to i64
  %13 = getelementptr inbounds i8, ptr %5, i64 %12
  ret ptr %13
}

; Function Attrs: nounwind uwtable
define dso_local double @generic_restriction_selectivity(ptr noundef %0, i32 noundef %1, i32 noundef %2, ptr noundef %3, i32 noundef %4, double noundef %5) #0 {
  %7 = alloca double, align 8
  %8 = alloca ptr, align 8
  %9 = alloca i32, align 4
  %10 = alloca i32, align 4
  %11 = alloca ptr, align 8
  %12 = alloca i32, align 4
  %13 = alloca double, align 8
  %14 = alloca double, align 8
  %15 = alloca %struct.VariableStatData, align 8
  %16 = alloca ptr, align 8
  %17 = alloca i8, align 1
  %18 = alloca i32, align 4
  %19 = alloca i64, align 8
  %20 = alloca %struct.FmgrInfo, align 8
  %21 = alloca double, align 8
  %22 = alloca double, align 8
  %23 = alloca double, align 8
  %24 = alloca i32, align 4
  %25 = alloca double, align 8
  store ptr %0, ptr %8, align 8
  store i32 %1, ptr %9, align 4
  store i32 %2, ptr %10, align 4
  store ptr %3, ptr %11, align 8
  store i32 %4, ptr %12, align 4
  store double %5, ptr %13, align 8
  call void @llvm.lifetime.start.p0(i64 8, ptr %14) #10
  call void @llvm.lifetime.start.p0(i64 48, ptr %15) #10
  call void @llvm.lifetime.start.p0(i64 8, ptr %16) #10
  call void @llvm.lifetime.start.p0(i64 1, ptr %17) #10
  %26 = load ptr, ptr %8, align 8
  %27 = load ptr, ptr %11, align 8
  %28 = load i32, ptr %12, align 4
  %29 = call zeroext i1 @get_restriction_variable(ptr noundef %26, ptr noundef %27, i32 noundef %28, ptr noundef %15, ptr noundef %16, ptr noundef %17)
  br i1 %29, label %32, label %30

30:                                               ; preds = %6
  %31 = load double, ptr %13, align 8
  store double %31, ptr %7, align 8
  store i32 1, ptr %18, align 4
  br label %154

32:                                               ; preds = %6
  %33 = load ptr, ptr %16, align 8
  %34 = getelementptr inbounds nuw %struct.Node, ptr %33, i32 0, i32 0
  %35 = load i32, ptr %34, align 4
  %36 = icmp eq i32 %35, 7
  br i1 %36, label %37, label %55

37:                                               ; preds = %32
  %38 = load ptr, ptr %16, align 8
  %39 = getelementptr inbounds nuw %struct.Const, ptr %38, i32 0, i32 6
  %40 = load i8, ptr %39, align 8, !range !4, !noundef !5
  %41 = trunc i8 %40 to i1
  br i1 %41, label %42, label %55

42:                                               ; preds = %37
  br label %43

43:                                               ; preds = %42
  %44 = getelementptr inbounds nuw %struct.VariableStatData, ptr %15, i32 0, i32 2
  %45 = load ptr, ptr %44, align 8
  %46 = icmp ne ptr %45, null
  br i1 %46, label %47, label %52

47:                                               ; preds = %43
  %48 = getelementptr inbounds nuw %struct.VariableStatData, ptr %15, i32 0, i32 3
  %49 = load ptr, ptr %48, align 8
  %50 = getelementptr inbounds nuw %struct.VariableStatData, ptr %15, i32 0, i32 2
  %51 = load ptr, ptr %50, align 8
  call void %49(ptr noundef %51)
  br label %52

52:                                               ; preds = %47, %43
  br label %53

53:                                               ; preds = %52
  br label %54

54:                                               ; preds = %53
  store double 0.000000e+00, ptr %7, align 8
  store i32 1, ptr %18, align 4
  br label %154

55:                                               ; preds = %37, %32
  %56 = load ptr, ptr %16, align 8
  %57 = getelementptr inbounds nuw %struct.Node, ptr %56, i32 0, i32 0
  %58 = load i32, ptr %57, align 4
  %59 = icmp eq i32 %58, 7
  br i1 %59, label %60, label %126

60:                                               ; preds = %55
  call void @llvm.lifetime.start.p0(i64 8, ptr %19) #10
  %61 = load ptr, ptr %16, align 8
  %62 = getelementptr inbounds nuw %struct.Const, ptr %61, i32 0, i32 5
  %63 = load i64, ptr %62, align 8
  store i64 %63, ptr %19, align 8
  call void @llvm.lifetime.start.p0(i64 48, ptr %20) #10
  call void @llvm.lifetime.start.p0(i64 8, ptr %21) #10
  call void @llvm.lifetime.start.p0(i64 8, ptr %22) #10
  call void @llvm.lifetime.start.p0(i64 8, ptr %23) #10
  call void @llvm.lifetime.start.p0(i64 4, ptr %24) #10
  %64 = load i32, ptr %9, align 4
  %65 = call i32 @get_opcode(i32 noundef %64)
  call void @fmgr_info(i32 noundef %65, ptr noundef %20)
  %66 = load i32, ptr %10, align 4
  %67 = load i64, ptr %19, align 8
  %68 = load i8, ptr %17, align 1, !range !4, !noundef !5
  %69 = trunc i8 %68 to i1
  %70 = call double @mcv_selectivity(ptr noundef %15, ptr noundef %20, i32 noundef %66, i64 noundef %67, i1 noundef zeroext %69, ptr noundef %21)
  store double %70, ptr %22, align 8
  %71 = load i32, ptr %10, align 4
  %72 = load i64, ptr %19, align 8
  %73 = load i8, ptr %17, align 1, !range !4, !noundef !5
  %74 = trunc i8 %73 to i1
  %75 = call double @histogram_selectivity(ptr noundef %15, ptr noundef %20, i32 noundef %71, i64 noundef %72, i1 noundef zeroext %74, i32 noundef 10, i32 noundef 1, ptr noundef %24)
  store double %75, ptr %14, align 8
  %76 = load double, ptr %14, align 8
  %77 = fcmp olt double %76, 0.000000e+00
  br i1 %77, label %78, label %80

78:                                               ; preds = %60
  %79 = load double, ptr %13, align 8
  store double %79, ptr %14, align 8
  br label %95

80:                                               ; preds = %60
  %81 = load i32, ptr %24, align 4
  %82 = icmp slt i32 %81, 100
  br i1 %82, label %83, label %94

83:                                               ; preds = %80
  call void @llvm.lifetime.start.p0(i64 8, ptr %25) #10
  %84 = load i32, ptr %24, align 4
  %85 = sitofp i32 %84 to double
  %86 = fdiv double %85, 1.000000e+02
  store double %86, ptr %25, align 8
  %87 = load double, ptr %14, align 8
  %88 = load double, ptr %25, align 8
  %89 = load double, ptr %13, align 8
  %90 = load double, ptr %25, align 8
  %91 = fsub double 1.000000e+00, %90
  %92 = fmul double %89, %91
  %93 = call double @llvm.fmuladd.f64(double %87, double %88, double %92)
  store double %93, ptr %14, align 8
  call void @llvm.lifetime.end.p0(i64 8, ptr %25) #10
  br label %94

94:                                               ; preds = %83, %80
  br label %95

95:                                               ; preds = %94, %78
  %96 = load double, ptr %14, align 8
  %97 = fcmp olt double %96, 1.000000e-04
  br i1 %97, label %98, label %99

98:                                               ; preds = %95
  store double 1.000000e-04, ptr %14, align 8
  br label %104

99:                                               ; preds = %95
  %100 = load double, ptr %14, align 8
  %101 = fcmp ogt double %100, 9.999000e-01
  br i1 %101, label %102, label %103

102:                                              ; preds = %99
  store double 9.999000e-01, ptr %14, align 8
  br label %103

103:                                              ; preds = %102, %99
  br label %104

104:                                              ; preds = %103, %98
  %105 = getelementptr inbounds nuw %struct.VariableStatData, ptr %15, i32 0, i32 2
  %106 = load ptr, ptr %105, align 8
  %107 = icmp ne ptr %106, null
  br i1 %107, label %108, label %115

108:                                              ; preds = %104
  %109 = getelementptr inbounds nuw %struct.VariableStatData, ptr %15, i32 0, i32 2
  %110 = load ptr, ptr %109, align 8
  %111 = call ptr @GETSTRUCT(ptr noundef %110)
  %112 = getelementptr inbounds nuw %struct.FormData_pg_statistic, ptr %111, i32 0, i32 3
  %113 = load float, ptr %112, align 4
  %114 = fpext float %113 to double
  store double %114, ptr %23, align 8
  br label %116

115:                                              ; preds = %104
  store double 0.000000e+00, ptr %23, align 8
  br label %116

116:                                              ; preds = %115, %108
  %117 = load double, ptr %23, align 8
  %118 = fsub double 1.000000e+00, %117
  %119 = load double, ptr %21, align 8
  %120 = fsub double %118, %119
  %121 = load double, ptr %14, align 8
  %122 = fmul double %121, %120
  store double %122, ptr %14, align 8
  %123 = load double, ptr %22, align 8
  %124 = load double, ptr %14, align 8
  %125 = fadd double %124, %123
  store double %125, ptr %14, align 8
  call void @llvm.lifetime.end.p0(i64 4, ptr %24) #10
  call void @llvm.lifetime.end.p0(i64 8, ptr %23) #10
  call void @llvm.lifetime.end.p0(i64 8, ptr %22) #10
  call void @llvm.lifetime.end.p0(i64 8, ptr %21) #10
  call void @llvm.lifetime.end.p0(i64 48, ptr %20) #10
  call void @llvm.lifetime.end.p0(i64 8, ptr %19) #10
  br label %128

126:                                              ; preds = %55
  %127 = load double, ptr %13, align 8
  store double %127, ptr %14, align 8
  br label %128

128:                                              ; preds = %126, %116
  br label %129

129:                                              ; preds = %128
  %130 = getelementptr inbounds nuw %struct.VariableStatData, ptr %15, i32 0, i32 2
  %131 = load ptr, ptr %130, align 8
  %132 = icmp ne ptr %131, null
  br i1 %132, label %133, label %138

133:                                              ; preds = %129
  %134 = getelementptr inbounds nuw %struct.VariableStatData, ptr %15, i32 0, i32 3
  %135 = load ptr, ptr %134, align 8
  %136 = getelementptr inbounds nuw %struct.VariableStatData, ptr %15, i32 0, i32 2
  %137 = load ptr, ptr %136, align 8
  call void %135(ptr noundef %137)
  br label %138

138:                                              ; preds = %133, %129
  br label %139

139:                                              ; preds = %138
  br label %140

140:                                              ; preds = %139
  br label %141

141:                                              ; preds = %140
  %142 = load double, ptr %14, align 8
  %143 = fcmp olt double %142, 0.000000e+00
  br i1 %143, label %144, label %145

144:                                              ; preds = %141
  store double 0.000000e+00, ptr %14, align 8
  br label %150

145:                                              ; preds = %141
  %146 = load double, ptr %14, align 8
  %147 = fcmp ogt double %146, 1.000000e+00
  br i1 %147, label %148, label %149

148:                                              ; preds = %145
  store double 1.000000e+00, ptr %14, align 8
  br label %149

149:                                              ; preds = %148, %145
  br label %150

150:                                              ; preds = %149, %144
  br label %151

151:                                              ; preds = %150
  br label %152

152:                                              ; preds = %151
  %153 = load double, ptr %14, align 8
  store double %153, ptr %7, align 8
  store i32 1, ptr %18, align 4
  br label %154

154:                                              ; preds = %152, %54, %30
  call void @llvm.lifetime.end.p0(i64 1, ptr %17) #10
  call void @llvm.lifetime.end.p0(i64 8, ptr %16) #10
  call void @llvm.lifetime.end.p0(i64 48, ptr %15) #10
  call void @llvm.lifetime.end.p0(i64 8, ptr %14) #10
  %155 = load double, ptr %7, align 8
  ret double %155
}