; Function Attrs: nounwind uwtable
define dso_local double @generic_restriction_selectivity(ptr noundef %0, i32 noundef %1, i32 noundef %2, ptr noundef captures(address_is_null) %3, i32 noundef %4, double noundef %5) local_unnamed_addr #0 {
  %7 = alloca %struct.VariableStatData, align 8
  %8 = alloca ptr, align 8
  %9 = alloca i8, align 1
  %10 = alloca %struct.FmgrInfo, align 8
  %11 = alloca double, align 8
  %12 = alloca i32, align 4
  call void @llvm.lifetime.start.p0(i64 48, ptr nonnull %7) #12
  call void @llvm.lifetime.start.p0(i64 8, ptr nonnull %8) #12
  call void @llvm.lifetime.start.p0(i64 1, ptr nonnull %9) #12
  %13 = call zeroext i1 @get_restriction_variable(ptr noundef %0, ptr noundef %3, i32 noundef %4, ptr noundef nonnull %7, ptr noundef nonnull %8, ptr noundef nonnull %9)
  br i1 %13, label %14, label %79

14:                                               ; preds = %6
  %15 = load ptr, ptr %8, align 8
  %16 = load i32, ptr %15, align 4
  %17 = icmp eq i32 %16, 7
  br i1 %17, label %18, label %._crit_edge

._crit_edge:                                      ; preds = %14
  %.phi.trans.insert = getelementptr inbounds nuw i8, ptr %7, i64 16
  %.pre = load ptr, ptr %.phi.trans.insert, align 8
  br label %69

18:                                               ; preds = %14
  %19 = getelementptr inbounds nuw i8, ptr %15, i64 32
  %20 = load i8, ptr %19, align 8, !range !4, !noundef !5
  %21 = trunc nuw i8 %20 to i1
  br i1 %21, label %22, label %28

22:                                               ; preds = %18
  %23 = getelementptr inbounds nuw i8, ptr %7, i64 16
  %24 = load ptr, ptr %23, align 8
  %.not33 = icmp eq ptr %24, null
  br i1 %.not33, label %79, label %25

25:                                               ; preds = %22
  %26 = getelementptr inbounds nuw i8, ptr %7, i64 24
  %27 = load ptr, ptr %26, align 8
  call void %27(ptr noundef nonnull %24) #12
  br label %79

28:                                               ; preds = %18
  %29 = getelementptr inbounds nuw i8, ptr %15, i64 24
  %30 = load i64, ptr %29, align 8
  call void @llvm.lifetime.start.p0(i64 48, ptr nonnull %10) #12
  call void @llvm.lifetime.start.p0(i64 8, ptr nonnull %11) #12
  call void @llvm.lifetime.start.p0(i64 4, ptr nonnull %12) #12
  %31 = call i32 @get_opcode(i32 noundef %1) #12
  call void @fmgr_info(i32 noundef %31, ptr noundef nonnull %10) #12
  %32 = load i8, ptr %9, align 1, !range !4, !noundef !5
  %33 = trunc nuw i8 %32 to i1
  %34 = call double @mcv_selectivity(ptr noundef nonnull %7, ptr noundef nonnull %10, i32 noundef %2, i64 noundef %30, i1 noundef zeroext %33, ptr noundef nonnull %11)
  %35 = call double @histogram_selectivity(ptr noundef nonnull %7, ptr noundef nonnull %10, i32 noundef %2, i64 noundef %30, i1 noundef zeroext %33, i32 noundef 10, i32 noundef 1, ptr noundef nonnull %12)
  %36 = fcmp olt double %35, 0.000000e+00
  br i1 %36, label %46, label %37

37:                                               ; preds = %28
  %38 = load i32, ptr %12, align 4
  %39 = icmp slt i32 %38, 100
  br i1 %39, label %40, label %46

40:                                               ; preds = %37
  %41 = sitofp i32 %38 to double
  %42 = fdiv double %41, 1.000000e+02
  %43 = fsub double 1.000000e+00, %42
  %44 = fmul double %5, %43
  %45 = call double @llvm.fmuladd.f64(double %35, double %42, double %44)
  br label %46

46:                                               ; preds = %28, %37, %40
  %.026 = phi double [ %45, %40 ], [ %35, %37 ], [ %5, %28 ]
  %47 = fcmp olt double %.026, 1.000000e-04
  br i1 %47, label %51, label %48

48:                                               ; preds = %46
  %49 = fcmp ogt double %.026, 9.999000e-01
  br i1 %49, label %50, label %51

50:                                               ; preds = %48
  br label %51

51:                                               ; preds = %46, %48, %50
  %.1 = phi double [ 9.999000e-01, %50 ], [ %.026, %48 ], [ 1.000000e-04, %46 ]
  %52 = getelementptr inbounds nuw i8, ptr %7, i64 16
  %53 = load ptr, ptr %52, align 8
  %.not = icmp eq ptr %53, null
  br i1 %.not, label %63, label %54

54:                                               ; preds = %51
  %55 = getelementptr i8, ptr %53, i64 16
  %.val = load ptr, ptr %55, align 8
  %56 = getelementptr inbounds nuw i8, ptr %.val, i64 22
  %57 = load i8, ptr %56, align 2
  %58 = zext i8 %57 to i64
  %59 = getelementptr inbounds nuw i8, ptr %.val, i64 %58
  %60 = getelementptr inbounds nuw i8, ptr %59, i64 8
  %61 = load float, ptr %60, align 4
  %62 = fpext float %61 to double
  br label %63

63:                                               ; preds = %51, %54
  %.025 = phi double [ %62, %54 ], [ 0.000000e+00, %51 ]
  %64 = fsub double 1.000000e+00, %.025
  %65 = load double, ptr %11, align 8
  %66 = fsub double %64, %65
  %67 = fmul double %.1, %66
  %68 = fadd double %34, %67
  call void @llvm.lifetime.end.p0(i64 4, ptr nonnull %12) #12
  call void @llvm.lifetime.end.p0(i64 8, ptr nonnull %11) #12
  call void @llvm.lifetime.end.p0(i64 48, ptr nonnull %10) #12
  br label %69

69:                                               ; preds = %._crit_edge, %63
  %70 = phi ptr [ %53, %63 ], [ %.pre, %._crit_edge ]
  %.2 = phi double [ %68, %63 ], [ %5, %._crit_edge ]
  %.not32 = icmp eq ptr %70, null
  br i1 %.not32, label %74, label %71

71:                                               ; preds = %69
  %72 = getelementptr inbounds nuw i8, ptr %7, i64 24
  %73 = load ptr, ptr %72, align 8
  call void %73(ptr noundef nonnull %70) #12
  br label %74

74:                                               ; preds = %69, %71
  %75 = fcmp olt double %.2, 0.000000e+00
  br i1 %75, label %79, label %76

76:                                               ; preds = %74
  %77 = fcmp ogt double %.2, 1.000000e+00
  br i1 %77, label %78, label %79

78:                                               ; preds = %76
  br label %79

79:                                               ; preds = %78, %76, %74, %22, %25, %6
  %.0 = phi double [ %5, %6 ], [ 0.000000e+00, %25 ], [ 0.000000e+00, %22 ], [ 1.000000e+00, %78 ], [ %.2, %76 ], [ 0.000000e+00, %74 ]
  call void @llvm.lifetime.end.p0(i64 1, ptr nonnull %9) #12
  call void @llvm.lifetime.end.p0(i64 8, ptr nonnull %8) #12
  call void @llvm.lifetime.end.p0(i64 48, ptr nonnull %7) #12
  ret double %.0
}